; Function Attrs: nounwind uwtable
define internal fastcc range(i32 -1, 1) i32 @cvQuadSensEwtSet(ptr noundef nonnull readonly captures(none) %0, ptr noundef readonly captures(none) %1, ptr noundef readonly captures(none) %2) unnamed_addr #0 {
  %4 = getelementptr inbounds nuw i8, ptr %0, i64 288
  %5 = load i32, ptr %4, align 8, !tbaa !190
  switch i32 %5, label %cvQuadSensEwtSetEE.exit [
    i32 4, label %6
    i32 1, label %30
    i32 2, label %57
  ]

6:                                                ; preds = %3
  %7 = getelementptr inbounds nuw i8, ptr %0, i64 880
  %8 = load ptr, ptr %7, align 8, !tbaa !176
  %9 = load ptr, ptr %8, align 8, !tbaa !46
  %10 = getelementptr inbounds nuw i8, ptr %0, i64 192
  %11 = getelementptr inbounds nuw i8, ptr %0, i64 140
  %12 = load i32, ptr %11, align 4, !tbaa !133
  %13 = icmp sgt i32 %12, 0
  br i1 %13, label %.lr.ph.i, label %cvQuadSensEwtSetEE.exit

.lr.ph.i:                                         ; preds = %6, %22
  %indvars.iv.i = phi i64 [ %indvars.iv.next.i, %22 ], [ 0, %6 ]
  %14 = load ptr, ptr %10, align 8, !tbaa !48
  %15 = getelementptr inbounds nuw double, ptr %14, i64 %indvars.iv.i
  %16 = load double, ptr %15, align 8, !tbaa !49
  %17 = getelementptr inbounds nuw ptr, ptr %1, i64 %indvars.iv.i
  %18 = load ptr, ptr %17, align 8, !tbaa !46
  tail call void @N_VScale(double noundef %16, ptr noundef %18, ptr noundef %9) #13
  %19 = getelementptr inbounds nuw ptr, ptr %2, i64 %indvars.iv.i
  %20 = load ptr, ptr %19, align 8, !tbaa !46
  %21 = tail call fastcc i32 @cvQuadEwtSet(ptr noundef nonnull readonly %0, ptr noundef %9, ptr noundef %20)
  %.not.i = icmp eq i32 %21, 0
  br i1 %.not.i, label %22, label %cvQuadSensEwtSetEE.exit

22:                                               ; preds = %.lr.ph.i
  %23 = load ptr, ptr %10, align 8, !tbaa !48
  %24 = getelementptr inbounds nuw double, ptr %23, i64 %indvars.iv.i
  %25 = load double, ptr %24, align 8, !tbaa !49
  %26 = load ptr, ptr %19, align 8, !tbaa !46
  tail call void @N_VScale(double noundef %25, ptr noundef %26, ptr noundef %26) #13
  %indvars.iv.next.i = add nuw nsw i64 %indvars.iv.i, 1
  %27 = load i32, ptr %11, align 4, !tbaa !133
  %28 = sext i32 %27 to i64
  %29 = icmp slt i64 %indvars.iv.next.i, %28
  br i1 %29, label %.lr.ph.i, label %cvQuadSensEwtSetEE.exit, !llvm.loop !270

30:                                               ; preds = %3
  %31 = getelementptr inbounds nuw i8, ptr %0, i64 140
  %32 = load i32, ptr %31, align 4, !tbaa !133
  %33 = icmp sgt i32 %32, 0
  br i1 %33, label %.lr.ph.i10, label %cvQuadSensEwtSetEE.exit

.lr.ph.i10:                                       ; preds = %30
  %34 = getelementptr inbounds nuw i8, ptr %0, i64 592
  %35 = getelementptr inbounds nuw i8, ptr %0, i64 296
  %36 = getelementptr inbounds nuw i8, ptr %0, i64 304
  br label %37

37:                                               ; preds = %50, %.lr.ph.i10
  %indvars.iv.i11 = phi i64 [ 0, %.lr.ph.i10 ], [ %indvars.iv.next.i12, %50 ]
  %38 = getelementptr inbounds nuw ptr, ptr %1, i64 %indvars.iv.i11
  %39 = load ptr, ptr %38, align 8, !tbaa !46
  %40 = load ptr, ptr %34, align 8, !tbaa !119
  tail call void @N_VAbs(ptr noundef %39, ptr noundef %40) #13
  %41 = load double, ptr %35, align 8, !tbaa !191
  %42 = load ptr, ptr %34, align 8, !tbaa !119
  tail call void @N_VScale(double noundef %41, ptr noundef %42, ptr noundef %42) #13
  %43 = load ptr, ptr %34, align 8, !tbaa !119
  %44 = load ptr, ptr %36, align 8, !tbaa !193
  %45 = getelementptr inbounds nuw double, ptr %44, i64 %indvars.iv.i11
  %46 = load double, ptr %45, align 8, !tbaa !49
  tail call void @N_VAddConst(ptr noundef %43, double noundef %46, ptr noundef %43) #13
  %47 = load ptr, ptr %34, align 8, !tbaa !119
  %48 = tail call double @N_VMin(ptr noundef %47) #13
  %49 = fcmp ugt double %48, 0.000000e+00
  br i1 %49, label %50, label %cvQuadSensEwtSetEE.exit

50:                                               ; preds = %37
  %51 = load ptr, ptr %34, align 8, !tbaa !119
  %52 = getelementptr inbounds nuw ptr, ptr %2, i64 %indvars.iv.i11
  %53 = load ptr, ptr %52, align 8, !tbaa !46
  tail call void @N_VInv(ptr noundef %51, ptr noundef %53) #13
  %indvars.iv.next.i12 = add nuw nsw i64 %indvars.iv.i11, 1
  %54 = load i32, ptr %31, align 4, !tbaa !133
  %55 = sext i32 %54 to i64
  %56 = icmp slt i64 %indvars.iv.next.i12, %55
  br i1 %56, label %37, label %cvQuadSensEwtSetEE.exit, !llvm.loop !271

57:                                               ; preds = %3
  %58 = getelementptr inbounds nuw i8, ptr %0, i64 140
  %59 = load i32, ptr %58, align 4, !tbaa !133
  %60 = icmp sgt i32 %59, 0
  br i1 %60, label %.lr.ph.i13, label %cvQuadSensEwtSetEE.exit

.lr.ph.i13:                                       ; preds = %57
  %61 = getelementptr inbounds nuw i8, ptr %0, i64 592
  %62 = getelementptr inbounds nuw i8, ptr %0, i64 296
  %63 = getelementptr inbounds nuw i8, ptr %0, i64 312
  br label %64

64:                                               ; preds = %76, %.lr.ph.i13
  %indvars.iv.i14 = phi i64 [ 0, %.lr.ph.i13 ], [ %indvars.iv.next.i15, %76 ]
  %65 = getelementptr inbounds nuw ptr, ptr %1, i64 %indvars.iv.i14
  %66 = load ptr, ptr %65, align 8, !tbaa !46
  %67 = load ptr, ptr %61, align 8, !tbaa !119
  tail call void @N_VAbs(ptr noundef %66, ptr noundef %67) #13
  %68 = load double, ptr %62, align 8, !tbaa !191
  %69 = load ptr, ptr %61, align 8, !tbaa !119
  %70 = load ptr, ptr %63, align 8, !tbaa !197
  %71 = getelementptr inbounds nuw ptr, ptr %70, i64 %indvars.iv.i14
  %72 = load ptr, ptr %71, align 8, !tbaa !46
  tail call void @N_VLinearSum(double noundef %68, ptr noundef %69, double noundef 1.000000e+00, ptr noundef %72, ptr noundef %69) #13
  %73 = load ptr, ptr %61, align 8, !tbaa !119
  %74 = tail call double @N_VMin(ptr noundef %73) #13
  %75 = fcmp ugt double %74, 0.000000e+00
  br i1 %75, label %76, label %cvQuadSensEwtSetEE.exit

76:                                               ; preds = %64
  %77 = load ptr, ptr %61, align 8, !tbaa !119
  %78 = getelementptr inbounds nuw ptr, ptr %2, i64 %indvars.iv.i14
  %79 = load ptr, ptr %78, align 8, !tbaa !46
  tail call void @N_VInv(ptr noundef %77, ptr noundef %79) #13
  %indvars.iv.next.i15 = add nuw nsw i64 %indvars.iv.i14, 1
  %80 = load i32, ptr %58, align 4, !tbaa !133
  %81 = sext i32 %80 to i64
  %82 = icmp slt i64 %indvars.iv.next.i15, %81
  br i1 %82, label %64, label %cvQuadSensEwtSetEE.exit, !llvm.loop !272

cvQuadSensEwtSetEE.exit:                          ; preds = %76, %64, %50, %37, %22, %.lr.ph.i, %57, %30, %6, %3
  %.0 = phi i32 [ 0, %3 ], [ 0, %6 ], [ 0, %30 ], [ 0, %57 ], [ -1, %.lr.ph.i ], [ 0, %22 ], [ -1, %37 ], [ 0, %50 ], [ -1, %64 ], [ 0, %76 ]
  ret i32 %.0
}